; Function Attrs: mustprogress nofree norecurse nosync nounwind willreturn memory(argmem: write) uwtable
define void @_ZN7rocksdb15CacheDumperImpl20DumpOneBlockCallBackERNSt7__cxx1112basic_stringIcSt11char_traitsIcESaIcEEE(ptr dead_on_unwind noalias writable writeonly sret(%"class.std::function.39") align 8 captures(none) initializes((0, 32)) %0, ptr noundef nonnull align 8 dereferenceable(137) %1, ptr noundef nonnull align 8 dereferenceable(32) %2) local_unnamed_addr #8 align 2 personality ptr @__gxx_personality_v0 {
  %4 = getelementptr inbounds nuw i8, ptr %0, i64 16
  %5 = getelementptr inbounds nuw i8, ptr %0, i64 24
  store ptr %1, ptr %0, align 8, !tbaa !120
  %.sroa.4.0..sroa_idx = getelementptr inbounds nuw i8, ptr %0, i64 8
  store ptr %2, ptr %.sroa.4.0..sroa_idx, align 8, !tbaa !125
  store ptr @"_ZNSt17_Function_handlerIFvRKN7rocksdb5SliceEPvmPKNS0_5Cache15CacheItemHelperEEZNS0_15CacheDumperImpl20DumpOneBlockCallBackERNSt7__cxx1112basic_stringIcSt11char_traitsIcESaIcEEEE3$_0E9_M_invokeERKSt9_Any_dataS3_OS4_OmOS8_", ptr %5, align 8, !tbaa !127
  store ptr @"_ZNSt17_Function_handlerIFvRKN7rocksdb5SliceEPvmPKNS0_5Cache15CacheItemHelperEEZNS0_15CacheDumperImpl20DumpOneBlockCallBackERNSt7__cxx1112basic_stringIcSt11char_traitsIcESaIcEEEE3$_0E10_M_managerERSt9_Any_dataRKSK_St18_Manager_operation", ptr %4, align 8, !tbaa !130
  ret void
}